target datalayout = "e-m:e-p270:32:32-p271:32:32-p272:64:64-i64:64-i128:128-f80:128-n8:16:32:64-S128"
target triple = "x86_64-pc-linux-gnu"

%struct._packet_info = type { ptr, ptr, i32, i32, %struct.nstime_t, %struct.nstime_t, %struct.nstime_t, i8, ptr, ptr, ptr, ptr, %struct._address, %struct._address, %struct._address, %struct._address, %struct._address, %struct._address, i32, ptr, i8, [3 x i8], %struct.anon, i32, i32, i32, i32, ptr, i8, ptr, ptr, i16, i16, i32, i32, i16, i32, i32, ptr, ptr, ptr, i8, i8, i16, i16, i16, i32, i16, i16, ptr, ptr, ptr, ptr, ptr, i32, i32 }
%struct.nstime_t = type { i64, i32 }
%struct._address = type { i32, i32, ptr, ptr }
%struct.anon = type { i8, [3 x i8] }

@hf_homeplug_mctrl = internal global i32 0, align 4
@hf_homeplug_mctrl_reserved = internal global i32 0, align 4
@hf_homeplug_mctrl_ne = internal global i32 0, align 4
@hf_homeplug_mehdr = internal global i32 0, align 4
@hf_homeplug_mehdr_mev = internal global i32 0, align 4
@hf_homeplug_mehdr_metype = internal global i32 0, align 4
@hf_homeplug_melen = internal global i32 0, align 4
@ett_homeplug = internal global i32 0, align 4
@ett_homeplug_mctrl = internal global i32 0, align 4
@ett_homeplug_mehdr = internal global i32 0, align 4
@.str.291 = private unnamed_addr constant [9 x i8] c"HomePlug\00", align 1
@proto_homeplug = internal global i32 0, align 4
@.str.324 = private unnamed_addr constant [15 x i8] c"MAC Management\00", align 1
@homeplug_offset = internal global i32 0, align 4
@homeplug_ne = internal global i8 0, align 1
@homeplug_metype = internal global i8 0, align 1
@homeplug_melen = internal global i8 0, align 1

; Function Attrs: null_pointer_is_valid sspstrong uwtable
define internal void @dissect_homeplug_melen(ptr noundef %0) #0 {
  %2 = alloca ptr, align 8
  store ptr %0, ptr %2, align 8
  %3 = load ptr, ptr %2, align 8
  %4 = call ptr @ptvcursor_tree(ptr noundef %3)
  %5 = icmp ne ptr %4, null
  br i1 %5, label %7, label %6

6:                                                ; preds = %1
  br label %16

7:                                                ; preds = %1
  %8 = load ptr, ptr %2, align 8
  %9 = call ptr @ptvcursor_tvbuff(ptr noundef %8)
  %10 = load ptr, ptr %2, align 8
  %11 = call i32 @ptvcursor_current_offset(ptr noundef %10)
  %12 = call zeroext i8 @tvb_get_uint8(ptr noundef %9, i32 noundef %11)
  store i8 %12, ptr @homeplug_melen, align 1
  %13 = load ptr, ptr %2, align 8
  %14 = load i32, ptr @hf_homeplug_melen, align 4
  %15 = call ptr @ptvcursor_add(ptr noundef %13, i32 noundef %14, i32 noundef 1, i32 noundef 0)
  br label %16

16:                                               ; preds = %7, %6
  ret void
}

; Function Attrs: null_pointer_is_valid sspstrong uwtable
define internal void @dissect_homeplug_mehdr(ptr noundef %0) #0 {
  %2 = alloca ptr, align 8
  %3 = alloca ptr, align 8
  %4 = alloca i32, align 4
  store ptr %0, ptr %2, align 8
  call void @llvm.lifetime.start.p0(i64 8, ptr %3) #5
  store ptr null, ptr %3, align 8
  %5 = load ptr, ptr %2, align 8
  %6 = call ptr @ptvcursor_tree(ptr noundef %5)
  %7 = icmp ne ptr %6, null
  br i1 %7, label %9, label %8

8:                                                ; preds = %1
  store i32 1, ptr %4, align 4
  br label %32

9:                                                ; preds = %1
  %10 = load ptr, ptr %2, align 8
  %11 = load i32, ptr @hf_homeplug_mehdr, align 4
  %12 = call ptr @ptvcursor_add_no_advance(ptr noundef %10, i32 noundef %11, i32 noundef 1, i32 noundef 0)
  store ptr %12, ptr %3, align 8
  %13 = load ptr, ptr %2, align 8
  %14 = call ptr @ptvcursor_tvbuff(ptr noundef %13)
  %15 = load ptr, ptr %2, align 8
  %16 = call i32 @ptvcursor_current_offset(ptr noundef %15)
  %17 = call zeroext i8 @tvb_get_uint8(ptr noundef %14, i32 noundef %16)
  %18 = zext i8 %17 to i32
  %19 = and i32 %18, 31
  %20 = trunc i32 %19 to i8
  store i8 %20, ptr @homeplug_metype, align 1
  %21 = load ptr, ptr %2, align 8
  %22 = load ptr, ptr %3, align 8
  %23 = load i32, ptr @ett_homeplug_mehdr, align 4
  %24 = call ptr @ptvcursor_push_subtree(ptr noundef %21, ptr noundef %22, i32 noundef %23)
  %25 = load ptr, ptr %2, align 8
  %26 = load i32, ptr @hf_homeplug_mehdr_mev, align 4
  %27 = call ptr @ptvcursor_add_no_advance(ptr noundef %25, i32 noundef %26, i32 noundef 1, i32 noundef 0)
  %28 = load ptr, ptr %2, align 8
  %29 = load i32, ptr @hf_homeplug_mehdr_metype, align 4
  %30 = call ptr @ptvcursor_add(ptr noundef %28, i32 noundef %29, i32 noundef 1, i32 noundef 0)
  %31 = load ptr, ptr %2, align 8
  call void @ptvcursor_pop_subtree(ptr noundef %31)
  store i32 0, ptr %4, align 4
  br label %32

32:                                               ; preds = %9, %8
  call void @llvm.lifetime.end.p0(i64 8, ptr %3) #5
  %33 = load i32, ptr %4, align 4
  switch i32 %33, label %35 [
    i32 0, label %34
    i32 1, label %34
  ]

34:                                               ; preds = %32, %32
  ret void

35:                                               ; preds = %32
  unreachable
}

; Function Attrs: null_pointer_is_valid sspstrong uwtable
define internal void @dissect_homeplug_mctrl(ptr noundef %0) #0 {
  %2 = alloca ptr, align 8
  %3 = alloca ptr, align 8
  %4 = alloca i32, align 4
  store ptr %0, ptr %2, align 8
  call void @llvm.lifetime.start.p0(i64 8, ptr %3) #5
  store ptr null, ptr %3, align 8
  %5 = load ptr, ptr %2, align 8
  %6 = call ptr @ptvcursor_tree(ptr noundef %5)
  %7 = icmp ne ptr %6, null
  br i1 %7, label %9, label %8

8:                                                ; preds = %1
  store i32 1, ptr %4, align 4
  br label %32

9:                                                ; preds = %1
  %10 = load ptr, ptr %2, align 8
  %11 = load i32, ptr @hf_homeplug_mctrl, align 4
  %12 = call ptr @ptvcursor_add_no_advance(ptr noundef %10, i32 noundef %11, i32 noundef 1, i32 noundef 0)
  store ptr %12, ptr %3, align 8
  %13 = load ptr, ptr %2, align 8
  %14 = call ptr @ptvcursor_tvbuff(ptr noundef %13)
  %15 = load ptr, ptr %2, align 8
  %16 = call i32 @ptvcursor_current_offset(ptr noundef %15)
  %17 = call zeroext i8 @tvb_get_uint8(ptr noundef %14, i32 noundef %16)
  %18 = zext i8 %17 to i32
  %19 = and i32 %18, 127
  %20 = trunc i32 %19 to i8
  store i8 %20, ptr @homeplug_ne, align 1
  %21 = load ptr, ptr %2, align 8
  %22 = load ptr, ptr %3, align 8
  %23 = load i32, ptr @ett_homeplug_mctrl, align 4
  %24 = call ptr @ptvcursor_push_subtree(ptr noundef %21, ptr noundef %22, i32 noundef %23)
  %25 = load ptr, ptr %2, align 8
  %26 = load i32, ptr @hf_homeplug_mctrl_reserved, align 4
  %27 = call ptr @ptvcursor_add_no_advance(ptr noundef %25, i32 noundef %26, i32 noundef 1, i32 noundef 0)
  %28 = load ptr, ptr %2, align 8
  %29 = load i32, ptr @hf_homeplug_mctrl_ne, align 4
  %30 = call ptr @ptvcursor_add(ptr noundef %28, i32 noundef %29, i32 noundef 1, i32 noundef 0)
  %31 = load ptr, ptr %2, align 8
  call void @ptvcursor_pop_subtree(ptr noundef %31)
  store i32 0, ptr %4, align 4
  br label %32

32:                                               ; preds = %9, %8
  call void @llvm.lifetime.end.p0(i64 8, ptr %3) #5
  %33 = load i32, ptr %4, align 4
  switch i32 %33, label %35 [
    i32 0, label %34
    i32 1, label %34
  ]

34:                                               ; preds = %32, %32
  ret void

35:                                               ; preds = %32
  unreachable
}

; Function Attrs: null_pointer_is_valid sspstrong uwtable
define internal i32 @check_tvb_length(ptr noundef %0, i32 noundef %1) #0 {
  %3 = alloca i32, align 4
  %4 = alloca ptr, align 8
  %5 = alloca i32, align 4
  store ptr %0, ptr %4, align 8
  store i32 %1, ptr %5, align 4
  %6 = load ptr, ptr %4, align 8
  %7 = icmp ne ptr %6, null
  br i1 %7, label %9, label %8

8:                                                ; preds = %2
  store i32 0, ptr %3, align 4
  br label %19

9:                                                ; preds = %2
  %10 = load ptr, ptr %4, align 8
  %11 = call ptr @ptvcursor_tvbuff(ptr noundef %10)
  %12 = load ptr, ptr %4, align 8
  %13 = call i32 @ptvcursor_current_offset(ptr noundef %12)
  %14 = call i32 @tvb_reported_length_remaining(ptr noundef %11, i32 noundef %13)
  %15 = load i32, ptr %5, align 4
  %16 = icmp slt i32 %14, %15
  br i1 %16, label %17, label %18

17:                                               ; preds = %9
  store i32 -1, ptr %3, align 4
  br label %19

18:                                               ; preds = %9
  store i32 1, ptr %3, align 4
  br label %19

19:                                               ; preds = %18, %17, %8
  %20 = load i32, ptr %3, align 4
  ret i32 %20
}

; Function Attrs: null_pointer_is_valid sspstrong uwtable
define internal i32 @dissect_homeplug(ptr noundef %0, ptr noundef %1, ptr noundef %2, ptr noundef %3) #0 {
  %5 = alloca ptr, align 8
  %6 = alloca ptr, align 8
  %7 = alloca ptr, align 8
  %8 = alloca ptr, align 8
  %9 = alloca ptr, align 8
  %10 = alloca ptr, align 8
  %11 = alloca ptr, align 8
  store ptr %0, ptr %5, align 8
  store ptr %1, ptr %6, align 8
  store ptr %2, ptr %7, align 8
  store ptr %3, ptr %8, align 8
  call void @llvm.lifetime.start.p0(i64 8, ptr %9) #5
  call void @llvm.lifetime.start.p0(i64 8, ptr %10) #5
  call void @llvm.lifetime.start.p0(i64 8, ptr %11) #5
  %12 = load ptr, ptr %6, align 8
  %13 = getelementptr inbounds nuw %struct._packet_info, ptr %12, i32 0, i32 1
  %14 = load ptr, ptr %13, align 8
  call void @col_set_str(ptr noundef %14, i32 noundef 35, ptr noundef @.str.291)
  %15 = load ptr, ptr %6, align 8
  %16 = getelementptr inbounds nuw %struct._packet_info, ptr %15, i32 0, i32 1
  %17 = load ptr, ptr %16, align 8
  call void @col_set_str(ptr noundef %17, i32 noundef 25, ptr noundef @.str.324)
  store i32 0, ptr @homeplug_offset, align 4
  %18 = load ptr, ptr %7, align 8
  %19 = load i32, ptr @proto_homeplug, align 4
  %20 = load ptr, ptr %5, align 8
  %21 = load i32, ptr @homeplug_offset, align 4
  %22 = call ptr @proto_tree_add_item(ptr noundef %18, i32 noundef %19, ptr noundef %20, i32 noundef %21, i32 noundef -1, i32 noundef 0)
  store ptr %22, ptr %9, align 8
  %23 = load ptr, ptr %9, align 8
  %24 = load i32, ptr @ett_homeplug, align 4
  %25 = call ptr @proto_item_add_subtree(ptr noundef %23, i32 noundef %24)
  store ptr %25, ptr %10, align 8
  %26 = load ptr, ptr %6, align 8
  %27 = getelementptr inbounds nuw %struct._packet_info, ptr %26, i32 0, i32 51
  %28 = load ptr, ptr %27, align 8
  %29 = load ptr, ptr %10, align 8
  %30 = load ptr, ptr %5, align 8
  %31 = call ptr @ptvcursor_new(ptr noundef %28, ptr noundef %29, ptr noundef %30, i32 noundef 0)
  store ptr %31, ptr %11, align 8
  %32 = load ptr, ptr %11, align 8
  %33 = call i32 @check_tvb_length(ptr noundef %32, i32 noundef 1)
  %34 = icmp ne i32 %33, -1
  br i1 %34, label %35, label %68

35:                                               ; preds = %4
  %36 = load ptr, ptr %11, align 8
  call void @dissect_homeplug_mctrl(ptr noundef %36)
  %37 = load i8, ptr @homeplug_ne, align 1
  %38 = zext i8 %37 to i32
  %39 = icmp sgt i32 %38, 0
  br i1 %39, label %40, label %44

40:                                               ; preds = %35
  %41 = load ptr, ptr %6, align 8
  %42 = getelementptr inbounds nuw %struct._packet_info, ptr %41, i32 0, i32 1
  %43 = load ptr, ptr %42, align 8
  call void @col_clear(ptr noundef %43, i32 noundef 25)
  br label %44

44:                                               ; preds = %40, %35
  br label %45

45:                                               ; preds = %64, %44
  %46 = load i8, ptr @homeplug_ne, align 1
  %47 = zext i8 %46 to i32
  %48 = icmp sgt i32 %47, 0
  br i1 %48, label %49, label %67

49:                                               ; preds = %45
  %50 = load ptr, ptr %11, align 8
  %51 = call i32 @check_tvb_length(ptr noundef %50, i32 noundef 1)
  %52 = icmp eq i32 %51, -1
  br i1 %52, label %53, label %54

53:                                               ; preds = %49
  br label %67

54:                                               ; preds = %49
  %55 = load ptr, ptr %11, align 8
  call void @dissect_homeplug_mehdr(ptr noundef %55)
  %56 = load ptr, ptr %11, align 8
  %57 = call i32 @check_tvb_length(ptr noundef %56, i32 noundef 1)
  %58 = icmp eq i32 %57, -1
  br i1 %58, label %59, label %60

59:                                               ; preds = %54
  br label %67

60:                                               ; preds = %54
  %61 = load ptr, ptr %11, align 8
  call void @dissect_homeplug_melen(ptr noundef %61)
  %62 = load ptr, ptr %11, align 8
  %63 = load ptr, ptr %6, align 8
  call void @dissect_homeplug_mme(ptr noundef %62, ptr noundef %63)
  br label %64

64:                                               ; preds = %60
  %65 = load i8, ptr @homeplug_ne, align 1
  %66 = add i8 %65, -1
  store i8 %66, ptr @homeplug_ne, align 1
  br label %45, !llvm.loop !6

67:                                               ; preds = %59, %53, %45
  br label %68

68:                                               ; preds = %67, %4
  %69 = load ptr, ptr %11, align 8
  call void @ptvcursor_free(ptr noundef %69)
  %70 = load ptr, ptr %5, align 8
  %71 = call i32 @tvb_captured_length(ptr noundef %70)
  call void @llvm.lifetime.end.p0(i64 8, ptr %11) #5
  call void @llvm.lifetime.end.p0(i64 8, ptr %10) #5
  call void @llvm.lifetime.end.p0(i64 8, ptr %9) #5
  ret i32 %71
}