; Function Attrs: null_pointer_is_valid sspstrong uwtable
define internal i32 @dissect_homeplug(ptr noundef %0, ptr noundef %1, ptr noundef %2, ptr readnone captures(none) %3) #0 {
  %5 = getelementptr inbounds nuw i8, ptr %1, i64 8
  %6 = load ptr, ptr %5, align 8
  tail call void @col_set_str(ptr noundef %6, i32 noundef 35, ptr noundef nonnull @.str.291)
  %7 = load ptr, ptr %5, align 8
  tail call void @col_set_str(ptr noundef %7, i32 noundef 25, ptr noundef nonnull @.str.324)
  %8 = load i32, ptr @proto_homeplug, align 4
  %9 = tail call ptr @proto_tree_add_item(ptr noundef %2, i32 noundef %8, ptr noundef %0, i32 noundef 0, i32 noundef -1, i32 noundef 0)
  %10 = load i32, ptr @ett_homeplug, align 4
  %11 = tail call ptr @proto_item_add_subtree(ptr noundef %9, i32 noundef %10)
  %12 = getelementptr inbounds nuw i8, ptr %1, i64 408
  %13 = load ptr, ptr %12, align 8
  %14 = tail call ptr @ptvcursor_new(ptr noundef %13, ptr noundef %11, ptr noundef %0, i32 noundef 0)
  %.not.i = icmp eq ptr %14, null
  br i1 %.not.i, label %20, label %15

15:                                               ; preds = %4
  %16 = tail call ptr @ptvcursor_tvbuff(ptr noundef nonnull %14)
  %17 = tail call i32 @ptvcursor_current_offset(ptr noundef nonnull %14)
  %18 = tail call i32 @tvb_reported_length_remaining(ptr noundef %16, i32 noundef %17)
  %19 = icmp slt i32 %18, 1
  br i1 %19, label %check_tvb_length.exit, label %20

20:                                               ; preds = %4, %15
  %21 = tail call ptr @ptvcursor_tree(ptr noundef %14)
  %.not.i21 = icmp eq ptr %21, null
  br i1 %.not.i21, label %dissect_homeplug_mctrl.exit, label %22

22:                                               ; preds = %20
  %23 = load i32, ptr @hf_homeplug_mctrl, align 4
  %24 = tail call ptr @ptvcursor_add_no_advance(ptr noundef %14, i32 noundef %23, i32 noundef 1, i32 noundef 0)
  %25 = tail call ptr @ptvcursor_tvbuff(ptr noundef %14)
  %26 = tail call i32 @ptvcursor_current_offset(ptr noundef %14)
  %27 = tail call zeroext i8 @tvb_get_uint8(ptr noundef %25, i32 noundef %26)
  %28 = and i8 %27, 127
  store i8 %28, ptr @homeplug_ne, align 1
  %29 = load i32, ptr @ett_homeplug_mctrl, align 4
  %30 = tail call ptr @ptvcursor_push_subtree(ptr noundef %14, ptr noundef %24, i32 noundef %29)
  %31 = load i32, ptr @hf_homeplug_mctrl_reserved, align 4
  %32 = tail call ptr @ptvcursor_add_no_advance(ptr noundef %14, i32 noundef %31, i32 noundef 1, i32 noundef 0)
  %33 = load i32, ptr @hf_homeplug_mctrl_ne, align 4
  %34 = tail call ptr @ptvcursor_add(ptr noundef %14, i32 noundef %33, i32 noundef 1, i32 noundef 0)
  tail call void @ptvcursor_pop_subtree(ptr noundef %14)
  br label %dissect_homeplug_mctrl.exit

dissect_homeplug_mctrl.exit:                      ; preds = %20, %22
  %35 = load i8, ptr @homeplug_ne, align 1
  %.not19 = icmp eq i8 %35, 0
  br i1 %.not19, label %check_tvb_length.exit, label %36

36:                                               ; preds = %dissect_homeplug_mctrl.exit
  %37 = load ptr, ptr %5, align 8
  tail call void @col_clear(ptr noundef %37, i32 noundef 25)
  %.pr.pre = load i8, ptr @homeplug_ne, align 1
  %38 = icmp eq i8 %.pr.pre, 0
  br i1 %38, label %check_tvb_length.exit, label %.lr.ph

.lr.ph:                                           ; preds = %36, %dissect_homeplug_melen.exit
  br i1 %.not.i, label %44, label %39

39:                                               ; preds = %.lr.ph
  %40 = tail call ptr @ptvcursor_tvbuff(ptr noundef nonnull %14)
  %41 = tail call i32 @ptvcursor_current_offset(ptr noundef nonnull %14)
  %42 = tail call i32 @tvb_reported_length_remaining(ptr noundef %40, i32 noundef %41)
  %43 = icmp slt i32 %42, 1
  br i1 %43, label %check_tvb_length.exit, label %44

44:                                               ; preds = %.lr.ph, %39
  %45 = tail call ptr @ptvcursor_tree(ptr noundef %14)
  %.not.i26 = icmp eq ptr %45, null
  br i1 %.not.i26, label %dissect_homeplug_mehdr.exit, label %46

46:                                               ; preds = %44
  %47 = load i32, ptr @hf_homeplug_mehdr, align 4
  %48 = tail call ptr @ptvcursor_add_no_advance(ptr noundef %14, i32 noundef %47, i32 noundef 1, i32 noundef 0)
  %49 = tail call ptr @ptvcursor_tvbuff(ptr noundef %14)
  %50 = tail call i32 @ptvcursor_current_offset(ptr noundef %14)
  %51 = tail call zeroext i8 @tvb_get_uint8(ptr noundef %49, i32 noundef %50)
  %52 = and i8 %51, 31
  store i8 %52, ptr @homeplug_metype, align 1
  %53 = load i32, ptr @ett_homeplug_mehdr, align 4
  %54 = tail call ptr @ptvcursor_push_subtree(ptr noundef %14, ptr noundef %48, i32 noundef %53)
  %55 = load i32, ptr @hf_homeplug_mehdr_mev, align 4
  %56 = tail call ptr @ptvcursor_add_no_advance(ptr noundef %14, i32 noundef %55, i32 noundef 1, i32 noundef 0)
  %57 = load i32, ptr @hf_homeplug_mehdr_metype, align 4
  %58 = tail call ptr @ptvcursor_add(ptr noundef %14, i32 noundef %57, i32 noundef 1, i32 noundef 0)
  tail call void @ptvcursor_pop_subtree(ptr noundef %14)
  br label %dissect_homeplug_mehdr.exit

dissect_homeplug_mehdr.exit:                      ; preds = %44, %46
  br i1 %.not.i, label %64, label %59

59:                                               ; preds = %dissect_homeplug_mehdr.exit
  %60 = tail call ptr @ptvcursor_tvbuff(ptr noundef nonnull %14)
  %61 = tail call i32 @ptvcursor_current_offset(ptr noundef nonnull %14)
  %62 = tail call i32 @tvb_reported_length_remaining(ptr noundef %60, i32 noundef %61)
  %63 = icmp slt i32 %62, 1
  br i1 %63, label %check_tvb_length.exit, label %64

64:                                               ; preds = %dissect_homeplug_mehdr.exit, %59
  %65 = tail call ptr @ptvcursor_tree(ptr noundef %14)
  %.not.i31 = icmp eq ptr %65, null
  br i1 %.not.i31, label %dissect_homeplug_melen.exit, label %66

66:                                               ; preds = %64
  %67 = tail call ptr @ptvcursor_tvbuff(ptr noundef %14)
  %68 = tail call i32 @ptvcursor_current_offset(ptr noundef %14)
  %69 = tail call zeroext i8 @tvb_get_uint8(ptr noundef %67, i32 noundef %68)
  store i8 %69, ptr @homeplug_melen, align 1
  %70 = load i32, ptr @hf_homeplug_melen, align 4
  %71 = tail call ptr @ptvcursor_add(ptr noundef %14, i32 noundef %70, i32 noundef 1, i32 noundef 0)
  br label %dissect_homeplug_melen.exit

dissect_homeplug_melen.exit:                      ; preds = %64, %66
  tail call fastcc void @dissect_homeplug_mme(ptr noundef %14, ptr noundef %1)
  %72 = load i8, ptr @homeplug_ne, align 1
  %73 = add i8 %72, -1
  store i8 %73, ptr @homeplug_ne, align 1
  %.not20 = icmp eq i8 %73, 0
  br i1 %.not20, label %check_tvb_length.exit, label %.lr.ph, !llvm.loop !6

check_tvb_length.exit:                            ; preds = %dissect_homeplug_melen.exit, %39, %59, %dissect_homeplug_mctrl.exit, %36, %15
  tail call void @ptvcursor_free(ptr noundef %14)
  %74 = tail call i32 @tvb_captured_length(ptr noundef %0)
  ret i32 %74
}